; Function Attrs: nounwind uwtable
define dso_local void @zend_fiber_resume_exception(ptr noundef %0, ptr noundef readonly captures(address_is_null) %1, ptr noundef writeonly captures(address_is_null) %2) local_unnamed_addr #7 {
  %4 = alloca %struct._zend_fiber_transfer, align 8
  %5 = getelementptr inbounds nuw i8, ptr %0, i64 104
  %6 = load i32, ptr %5, align 8, !tbaa !74
  %7 = icmp eq i32 %6, 2
  tail call void @llvm.assume(i1 %7)
  %8 = getelementptr inbounds nuw i8, ptr %0, i64 168
  %9 = load ptr, ptr %8, align 8, !tbaa !88
  %10 = icmp eq ptr %9, null
  tail call void @llvm.assume(i1 %10)
  %11 = load ptr, ptr getelementptr inbounds nuw (i8, ptr @executor_globals, i64 512), align 8, !tbaa !66
  %12 = getelementptr inbounds nuw i8, ptr %0, i64 296
  %13 = load ptr, ptr %12, align 8, !tbaa !98
  %14 = getelementptr inbounds nuw i8, ptr %13, i64 48
  store ptr %11, ptr %14, align 8, !tbaa !101
  call void @llvm.lifetime.start.p0(i64 32, ptr nonnull %4) #22
  %15 = load ptr, ptr getelementptr inbounds nuw (i8, ptr @executor_globals, i64 1776), align 8, !tbaa !70, !noalias !114
  %.not.i = icmp eq ptr %15, null
  br i1 %.not.i, label %zend_fiber_resume_internal.exit, label %16

16:                                               ; preds = %3
  %17 = getelementptr inbounds nuw i8, ptr %15, i64 288
  store ptr %11, ptr %17, align 8, !tbaa !87, !noalias !114
  br label %zend_fiber_resume_internal.exit

zend_fiber_resume_internal.exit:                  ; preds = %3, %16
  %18 = load ptr, ptr getelementptr inbounds nuw (i8, ptr @executor_globals, i64 1768), align 8, !tbaa !60, !noalias !114
  store ptr %18, ptr %8, align 8, !tbaa !88, !noalias !114
  store ptr %0, ptr getelementptr inbounds nuw (i8, ptr @executor_globals, i64 1776), align 8, !tbaa !70, !noalias !114
  %19 = getelementptr inbounds nuw i8, ptr %0, i64 176
  %20 = load ptr, ptr %19, align 8, !tbaa !83, !noalias !114
  tail call void @llvm.experimental.noalias.scope.decl(metadata !117)
  store ptr %20, ptr %4, align 8, !tbaa !57, !alias.scope !117
  %21 = getelementptr inbounds nuw i8, ptr %4, i64 8
  call void @llvm.memset.p0.i64(ptr noundef nonnull align 8 dereferenceable(16) %21, i8 0, i64 16, i1 false), !alias.scope !117
  %22 = getelementptr inbounds nuw i8, ptr %4, i64 24
  store i8 1, ptr %22, align 8, !tbaa !92, !alias.scope !117
  %23 = getelementptr inbounds nuw i8, ptr %4, i64 25
  call void @llvm.memset.p0.i64(ptr noundef nonnull align 1 dereferenceable(7) %23, i8 0, i64 7, i1 false), !alias.scope !117
  %.not.i7 = icmp eq ptr %1, null
  br i1 %.not.i7, label %33, label %24

24:                                               ; preds = %zend_fiber_resume_internal.exit
  %25 = load ptr, ptr %1, align 8, !tbaa !56, !noalias !117
  %26 = getelementptr inbounds nuw i8, ptr %1, i64 8
  %27 = load i32, ptr %26, align 8, !tbaa !56, !noalias !117
  store ptr %25, ptr %21, align 8, !tbaa !56, !alias.scope !117
  %28 = getelementptr inbounds nuw i8, ptr %4, i64 16
  store i32 %27, ptr %28, align 8, !tbaa !56, !alias.scope !117
  %29 = and i32 %27, 65280
  %.not11.i8 = icmp eq i32 %29, 0
  br i1 %.not11.i8, label %35, label %30

30:                                               ; preds = %24
  %31 = load i32, ptr %25, align 4, !tbaa !105, !noalias !117
  %32 = add i32 %31, 1
  store i32 %32, ptr %25, align 4, !tbaa !105, !noalias !117
  br label %35

33:                                               ; preds = %zend_fiber_resume_internal.exit
  %34 = getelementptr inbounds nuw i8, ptr %4, i64 16
  store i32 1, ptr %34, align 8, !tbaa !56, !alias.scope !117
  br label %35

35:                                               ; preds = %33, %30, %24
  call void @zend_fiber_switch_context(ptr noundef nonnull align 8 %4)
  %36 = load i8, ptr %22, align 8, !tbaa !92, !alias.scope !117
  %37 = and i8 %36, 2
  %.not12.i = icmp eq i8 %37, 0
  br i1 %.not12.i, label %zend_fiber_switch_to.exit, label %38, !prof !73

38:                                               ; preds = %35
  store ptr null, ptr getelementptr inbounds nuw (i8, ptr @executor_globals, i64 1776), align 8, !tbaa !70, !noalias !117
  call void @_zend_bailout(ptr noundef nonnull @.str.25, i32 noundef 669) #24
  unreachable

zend_fiber_switch_to.exit:                        ; preds = %35
  store ptr %15, ptr getelementptr inbounds nuw (i8, ptr @executor_globals, i64 1776), align 8, !tbaa !70, !noalias !114
  %39 = and i8 %36, 1
  %.not.i6 = icmp eq i8 %39, 0
  br i1 %.not.i6, label %44, label %40

40:                                               ; preds = %zend_fiber_switch_to.exit
  %41 = load ptr, ptr %21, align 8, !tbaa !56
  call void @zend_throw_exception_internal(ptr noundef %41) #22
  %42 = load ptr, ptr getelementptr inbounds nuw (i8, ptr @executor_globals, i64 960), align 8, !tbaa !93
  %43 = icmp ne ptr %42, null
  call void @llvm.assume(i1 %43)
  br label %zend_fiber_delegate_transfer_result.exit

44:                                               ; preds = %zend_fiber_switch_to.exit
  %.not11.i = icmp eq ptr %2, null
  br i1 %.not11.i, label %50, label %45

45:                                               ; preds = %44
  %46 = load ptr, ptr %21, align 8, !tbaa !56
  %47 = getelementptr inbounds nuw i8, ptr %4, i64 16
  %48 = load i32, ptr %47, align 8, !tbaa !56
  store ptr %46, ptr %2, align 8, !tbaa !56
  %49 = getelementptr inbounds nuw i8, ptr %2, i64 8
  store i32 %48, ptr %49, align 8, !tbaa !56
  br label %zend_fiber_delegate_transfer_result.exit

50:                                               ; preds = %44
  call void @zval_ptr_dtor(ptr noundef nonnull %21) #22
  br label %zend_fiber_delegate_transfer_result.exit

zend_fiber_delegate_transfer_result.exit:         ; preds = %40, %45, %50
  call void @llvm.lifetime.end.p0(i64 32, ptr nonnull %4) #22
  ret void
}